target datalayout = "e-m:e-p270:32:32-p271:32:32-p272:64:64-i64:64-i128:128-f80:128-n8:16:32:64-S128"
target triple = "x86_64-pc-linux-gnu"

%"class.icu_77::UnicodeString" = type { %"class.icu_77::Replaceable", %"union.icu_77::UnicodeString::StackBufferOrFields" }
%"class.icu_77::Replaceable" = type { %"class.icu_77::UObject" }
%"class.icu_77::UObject" = type { ptr }
%"union.icu_77::UnicodeString::StackBufferOrFields" = type { %struct.anon.0, [32 x i8] }
%struct.anon.0 = type { i16, i32, i32, ptr }
%"class.icu_77::NFRuleSet" = type <{ [8 x i8], %"class.icu_77::UnicodeString", %"class.icu_77::NFRuleList", [6 x ptr], ptr, %"class.icu_77::NFRuleList", i8, i8, i8, [5 x i8] }>
%"class.icu_77::NFRuleList" = type { ptr, i32, i32 }
%"class.icu_77::NFRule" = type { i64, i32, i16, i16, %"class.icu_77::UnicodeString", ptr, ptr, ptr, ptr }

; Function Attrs: inlinehint mustprogress nounwind uwtable
define linkonce_odr noundef i32 @_ZNK6icu_7713UnicodeString14getShortLengthEv(ptr noundef nonnull align 8 dereferenceable(64) %0) #3 comdat align 2 {
  %2 = alloca ptr, align 8
  store ptr %0, ptr %2, align 8, !tbaa !10
  %3 = load ptr, ptr %2, align 8
  %4 = getelementptr inbounds nuw %"class.icu_77::UnicodeString", ptr %3, i32 0, i32 1
  %5 = getelementptr inbounds nuw %struct.anon.0, ptr %4, i32 0, i32 0
  %6 = load i16, ptr %5, align 8, !tbaa !35
  %7 = sext i16 %6 to i32
  %8 = ashr i32 %7, 5
  ret i32 %8
}

; Function Attrs: inlinehint mustprogress nounwind uwtable
define linkonce_odr noundef signext i8 @_ZNK6icu_7713UnicodeString14hasShortLengthEv(ptr noundef nonnull align 8 dereferenceable(64) %0) #3 comdat align 2 {
  %2 = alloca ptr, align 8
  store ptr %0, ptr %2, align 8, !tbaa !10
  %3 = load ptr, ptr %2, align 8
  %4 = getelementptr inbounds nuw %"class.icu_77::UnicodeString", ptr %3, i32 0, i32 1
  %5 = getelementptr inbounds nuw %struct.anon.0, ptr %4, i32 0, i32 0
  %6 = load i16, ptr %5, align 8, !tbaa !35
  %7 = sext i16 %6 to i32
  %8 = icmp sge i32 %7, 0
  %9 = zext i1 %8 to i8
  ret i8 %9
}

; Function Attrs: inlinehint mustprogress uwtable
define linkonce_odr noundef i32 @_ZNK6icu_7713UnicodeString6lengthEv(ptr noundef nonnull align 8 dereferenceable(64) %0) #1 comdat align 2 {
  %2 = alloca ptr, align 8
  store ptr %0, ptr %2, align 8, !tbaa !10
  %3 = load ptr, ptr %2, align 8
  %4 = call noundef signext i8 @_ZNK6icu_7713UnicodeString14hasShortLengthEv(ptr noundef nonnull align 8 dereferenceable(64) %3)
  %5 = icmp ne i8 %4, 0
  br i1 %5, label %6, label %8

6:                                                ; preds = %1
  %7 = call noundef i32 @_ZNK6icu_7713UnicodeString14getShortLengthEv(ptr noundef nonnull align 8 dereferenceable(64) %3)
  br label %12

8:                                                ; preds = %1
  %9 = getelementptr inbounds nuw %"class.icu_77::UnicodeString", ptr %3, i32 0, i32 1
  %10 = getelementptr inbounds nuw %struct.anon.0, ptr %9, i32 0, i32 1
  %11 = load i32, ptr %10, align 4, !tbaa !35
  br label %12

12:                                               ; preds = %8, %6
  %13 = phi i32 [ %7, %6 ], [ %11, %8 ]
  ret i32 %13
}

; Function Attrs: mustprogress nounwind uwtable
define linkonce_odr noundef i64 @_ZNK6icu_776NFRule12getBaseValueEv(ptr noundef nonnull align 8 dereferenceable(112) %0) #6 comdat align 2 {
  %2 = alloca ptr, align 8
  store ptr %0, ptr %2, align 8, !tbaa !26
  %3 = load ptr, ptr %2, align 8
  %4 = getelementptr inbounds nuw %"class.icu_77::NFRule", ptr %3, i32 0, i32 0
  %5 = load i64, ptr %4, align 8, !tbaa !57
  ret i64 %5
}

; Function Attrs: mustprogress nounwind uwtable
define linkonce_odr noundef ptr @_ZNK6icu_7710NFRuleListixEj(ptr noundef nonnull align 8 dereferenceable(16) %0, i32 noundef %1) #6 comdat align 2 {
  %3 = alloca ptr, align 8
  %4 = alloca i32, align 4
  store ptr %0, ptr %3, align 8, !tbaa !36
  store i32 %1, ptr %4, align 4, !tbaa !12
  %5 = load ptr, ptr %3, align 8
  %6 = getelementptr inbounds nuw %"class.icu_77::NFRuleList", ptr %5, i32 0, i32 0
  %7 = load ptr, ptr %6, align 8, !tbaa !38
  %8 = icmp ne ptr %7, null
  br i1 %8, label %9, label %16

9:                                                ; preds = %2
  %10 = getelementptr inbounds nuw %"class.icu_77::NFRuleList", ptr %5, i32 0, i32 0
  %11 = load ptr, ptr %10, align 8, !tbaa !38
  %12 = load i32, ptr %4, align 4, !tbaa !12
  %13 = zext i32 %12 to i64
  %14 = getelementptr inbounds nuw ptr, ptr %11, i64 %13
  %15 = load ptr, ptr %14, align 8, !tbaa !26
  br label %17

16:                                               ; preds = %2
  br label %17

17:                                               ; preds = %16, %9
  %18 = phi ptr [ %15, %9 ], [ null, %16 ]
  ret ptr %18
}

; Function Attrs: mustprogress nounwind uwtable
define linkonce_odr noundef i32 @_ZNK6icu_7710NFRuleList4sizeEv(ptr noundef nonnull align 8 dereferenceable(16) %0) #6 comdat align 2 {
  %2 = alloca ptr, align 8
  store ptr %0, ptr %2, align 8, !tbaa !36
  %3 = load ptr, ptr %2, align 8
  %4 = getelementptr inbounds nuw %"class.icu_77::NFRuleList", ptr %3, i32 0, i32 1
  %5 = load i32, ptr %4, align 8, !tbaa !39
  ret i32 %5
}

; Function Attrs: inlinehint mustprogress uwtable
define linkonce_odr noundef nonnull align 8 dereferenceable(64) ptr @_ZN6icu_7713UnicodeString6appendEDs(ptr noundef nonnull align 8 dereferenceable(64) %0, i16 noundef zeroext %1) #1 comdat align 2 {
  %3 = alloca ptr, align 8
  %4 = alloca i16, align 2
  store ptr %0, ptr %3, align 8, !tbaa !10
  store i16 %1, ptr %4, align 2, !tbaa !41
  %5 = load ptr, ptr %3, align 8
  %6 = call noundef nonnull align 8 dereferenceable(64) ptr @_ZN6icu_7713UnicodeString8doAppendEPKDsii(ptr noundef nonnull align 8 dereferenceable(64) %5, ptr noundef %4, i32 noundef 0, i32 noundef 1)
  ret ptr %6
}

; Function Attrs: inlinehint mustprogress uwtable
define linkonce_odr noundef nonnull align 8 dereferenceable(64) ptr @_ZN6icu_7713UnicodeString6appendERKS0_(ptr noundef nonnull align 8 dereferenceable(64) %0, ptr noundef nonnull align 8 dereferenceable(64) %1) #1 comdat align 2 {
  %3 = alloca ptr, align 8
  %4 = alloca ptr, align 8
  store ptr %0, ptr %3, align 8, !tbaa !10
  store ptr %1, ptr %4, align 8, !tbaa !10
  %5 = load ptr, ptr %3, align 8
  %6 = load ptr, ptr %4, align 8, !tbaa !10
  %7 = load ptr, ptr %4, align 8, !tbaa !10
  %8 = call noundef i32 @_ZNK6icu_7713UnicodeString6lengthEv(ptr noundef nonnull align 8 dereferenceable(64) %7)
  %9 = call noundef nonnull align 8 dereferenceable(64) ptr @_ZN6icu_7713UnicodeString8doAppendERKS0_ii(ptr noundef nonnull align 8 dereferenceable(64) %5, ptr noundef nonnull align 8 dereferenceable(64) %6, i32 noundef 0, i32 noundef %8)
  ret ptr %9
}

; Function Attrs: mustprogress uwtable
define void @_ZNK6icu_779NFRuleSet11appendRulesERNS_13UnicodeStringE(ptr noundef nonnull align 8 dereferenceable(163) %0, ptr noundef nonnull align 8 dereferenceable(64) %1) #0 align 2 {
  %3 = alloca ptr, align 8
  %4 = alloca ptr, align 8
  %5 = alloca i32, align 4
  %6 = alloca ptr, align 8
  %7 = alloca i32, align 4
  %8 = alloca ptr, align 8
  store ptr %0, ptr %3, align 8, !tbaa !3
  store ptr %1, ptr %4, align 8, !tbaa !10
  %9 = load ptr, ptr %3, align 8
  call void @llvm.lifetime.start.p0(i64 4, ptr %5) #12
  %10 = load ptr, ptr %4, align 8, !tbaa !10
  %11 = getelementptr inbounds nuw %"class.icu_77::NFRuleSet", ptr %9, i32 0, i32 1
  %12 = call noundef nonnull align 8 dereferenceable(64) ptr @_ZN6icu_7713UnicodeString6appendERKS0_(ptr noundef nonnull align 8 dereferenceable(64) %10, ptr noundef nonnull align 8 dereferenceable(64) %11)
  %13 = load ptr, ptr %4, align 8, !tbaa !10
  %14 = call noundef nonnull align 8 dereferenceable(64) ptr @_ZN6icu_7713UnicodeString6appendEDs(ptr noundef nonnull align 8 dereferenceable(64) %13, i16 noundef zeroext 58)
  %15 = load ptr, ptr %4, align 8, !tbaa !10
  %16 = call noundef nonnull align 8 dereferenceable(64) ptr @_ZN6icu_7713UnicodeString6appendEDs(ptr noundef nonnull align 8 dereferenceable(64) %15, i16 noundef zeroext 10)
  store i32 0, ptr %5, align 4, !tbaa !12
  br label %17

17:                                               ; preds = %29, %2
  %18 = load i32, ptr %5, align 4, !tbaa !12
  %19 = getelementptr inbounds nuw %"class.icu_77::NFRuleSet", ptr %9, i32 0, i32 2
  %20 = call noundef i32 @_ZNK6icu_7710NFRuleList4sizeEv(ptr noundef nonnull align 8 dereferenceable(16) %19)
  %21 = icmp ult i32 %18, %20
  br i1 %21, label %22, label %32

22:                                               ; preds = %17
  %23 = getelementptr inbounds nuw %"class.icu_77::NFRuleSet", ptr %9, i32 0, i32 2
  %24 = load i32, ptr %5, align 4, !tbaa !12
  %25 = call noundef ptr @_ZNK6icu_7710NFRuleListixEj(ptr noundef nonnull align 8 dereferenceable(16) %23, i32 noundef %24)
  %26 = load ptr, ptr %4, align 8, !tbaa !10
  call void @_ZNK6icu_776NFRule15_appendRuleTextERNS_13UnicodeStringE(ptr noundef nonnull align 8 dereferenceable(112) %25, ptr noundef nonnull align 8 dereferenceable(64) %26)
  %27 = load ptr, ptr %4, align 8, !tbaa !10
  %28 = call noundef nonnull align 8 dereferenceable(64) ptr @_ZN6icu_7713UnicodeString6appendEDs(ptr noundef nonnull align 8 dereferenceable(64) %27, i16 noundef zeroext 10)
  br label %29

29:                                               ; preds = %22
  %30 = load i32, ptr %5, align 4, !tbaa !12
  %31 = add i32 %30, 1
  store i32 %31, ptr %5, align 4, !tbaa !12
  br label %17, !llvm.loop !91

32:                                               ; preds = %17
  store i32 0, ptr %5, align 4, !tbaa !12
  br label %33

33:                                               ; preds = %93, %32
  %34 = load i32, ptr %5, align 4, !tbaa !12
  %35 = icmp ult i32 %34, 6
  br i1 %35, label %36, label %96

36:                                               ; preds = %33
  call void @llvm.lifetime.start.p0(i64 8, ptr %6) #12
  %37 = getelementptr inbounds nuw %"class.icu_77::NFRuleSet", ptr %9, i32 0, i32 3
  %38 = load i32, ptr %5, align 4, !tbaa !12
  %39 = zext i32 %38 to i64
  %40 = getelementptr inbounds nuw [6 x ptr], ptr %37, i64 0, i64 %39
  %41 = load ptr, ptr %40, align 8, !tbaa !26
  store ptr %41, ptr %6, align 8, !tbaa !26
  %42 = getelementptr inbounds nuw %"class.icu_77::NFRuleSet", ptr %9, i32 0, i32 3
  %43 = load i32, ptr %5, align 4, !tbaa !12
  %44 = zext i32 %43 to i64
  %45 = getelementptr inbounds nuw [6 x ptr], ptr %42, i64 0, i64 %44
  %46 = load ptr, ptr %45, align 8, !tbaa !26
  %47 = icmp ne ptr %46, null
  br i1 %47, label %48, label %92

48:                                               ; preds = %36
  %49 = load ptr, ptr %6, align 8, !tbaa !26
  %50 = call noundef i64 @_ZNK6icu_776NFRule12getBaseValueEv(ptr noundef nonnull align 8 dereferenceable(112) %49)
  %51 = icmp eq i64 %50, -2
  br i1 %51, label %60, label %52

52:                                               ; preds = %48
  %53 = load ptr, ptr %6, align 8, !tbaa !26
  %54 = call noundef i64 @_ZNK6icu_776NFRule12getBaseValueEv(ptr noundef nonnull align 8 dereferenceable(112) %53)
  %55 = icmp eq i64 %54, -3
  br i1 %55, label %60, label %56

56:                                               ; preds = %52
  %57 = load ptr, ptr %6, align 8, !tbaa !26
  %58 = call noundef i64 @_ZNK6icu_776NFRule12getBaseValueEv(ptr noundef nonnull align 8 dereferenceable(112) %57)
  %59 = icmp eq i64 %58, -4
  br i1 %59, label %60, label %86

60:                                               ; preds = %56, %52, %48
  call void @llvm.lifetime.start.p0(i64 4, ptr %7) #12
  store i32 0, ptr %7, align 4, !tbaa !12
  br label %61

61:                                               ; preds = %82, %60
  %62 = load i32, ptr %7, align 4, !tbaa !12
  %63 = getelementptr inbounds nuw %"class.icu_77::NFRuleSet", ptr %9, i32 0, i32 5
  %64 = call noundef i32 @_ZNK6icu_7710NFRuleList4sizeEv(ptr noundef nonnull align 8 dereferenceable(16) %63)
  %65 = icmp ult i32 %62, %64
  br i1 %65, label %67, label %66

66:                                               ; preds = %61
  call void @llvm.lifetime.end.p0(i64 4, ptr %7) #12
  br label %85

67:                                               ; preds = %61
  call void @llvm.lifetime.start.p0(i64 8, ptr %8) #12
  %68 = getelementptr inbounds nuw %"class.icu_77::NFRuleSet", ptr %9, i32 0, i32 5
  %69 = load i32, ptr %7, align 4, !tbaa !12
  %70 = call noundef ptr @_ZNK6icu_7710NFRuleListixEj(ptr noundef nonnull align 8 dereferenceable(16) %68, i32 noundef %69)
  store ptr %70, ptr %8, align 8, !tbaa !26
  %71 = load ptr, ptr %8, align 8, !tbaa !26
  %72 = call noundef i64 @_ZNK6icu_776NFRule12getBaseValueEv(ptr noundef nonnull align 8 dereferenceable(112) %71)
  %73 = load ptr, ptr %6, align 8, !tbaa !26
  %74 = call noundef i64 @_ZNK6icu_776NFRule12getBaseValueEv(ptr noundef nonnull align 8 dereferenceable(112) %73)
  %75 = icmp eq i64 %72, %74
  br i1 %75, label %76, label %81

76:                                               ; preds = %67
  %77 = load ptr, ptr %8, align 8, !tbaa !26
  %78 = load ptr, ptr %4, align 8, !tbaa !10
  call void @_ZNK6icu_776NFRule15_appendRuleTextERNS_13UnicodeStringE(ptr noundef nonnull align 8 dereferenceable(112) %77, ptr noundef nonnull align 8 dereferenceable(64) %78)
  %79 = load ptr, ptr %4, align 8, !tbaa !10
  %80 = call noundef nonnull align 8 dereferenceable(64) ptr @_ZN6icu_7713UnicodeString6appendEDs(ptr noundef nonnull align 8 dereferenceable(64) %79, i16 noundef zeroext 10)
  br label %81

81:                                               ; preds = %76, %67
  call void @llvm.lifetime.end.p0(i64 8, ptr %8) #12
  br label %82

82:                                               ; preds = %81
  %83 = load i32, ptr %7, align 4, !tbaa !12
  %84 = add i32 %83, 1
  store i32 %84, ptr %7, align 4, !tbaa !12
  br label %61, !llvm.loop !92

85:                                               ; preds = %66
  br label %91

86:                                               ; preds = %56
  %87 = load ptr, ptr %6, align 8, !tbaa !26
  %88 = load ptr, ptr %4, align 8, !tbaa !10
  call void @_ZNK6icu_776NFRule15_appendRuleTextERNS_13UnicodeStringE(ptr noundef nonnull align 8 dereferenceable(112) %87, ptr noundef nonnull align 8 dereferenceable(64) %88)
  %89 = load ptr, ptr %4, align 8, !tbaa !10
  %90 = call noundef nonnull align 8 dereferenceable(64) ptr @_ZN6icu_7713UnicodeString6appendEDs(ptr noundef nonnull align 8 dereferenceable(64) %89, i16 noundef zeroext 10)
  br label %91

91:                                               ; preds = %86, %85
  br label %92

92:                                               ; preds = %91, %36
  call void @llvm.lifetime.end.p0(i64 8, ptr %6) #12
  br label %93

93:                                               ; preds = %92
  %94 = load i32, ptr %5, align 4, !tbaa !12
  %95 = add i32 %94, 1
  store i32 %95, ptr %5, align 4, !tbaa !12
  br label %33, !llvm.loop !93

96:                                               ; preds = %33
  call void @llvm.lifetime.end.p0(i64 4, ptr %5) #12
  ret void
}