; Function Attrs: mustprogress uwtable
define void @_ZNK6icu_779NFRuleSet11appendRulesERNS_13UnicodeStringE(ptr noundef nonnull align 8 dereferenceable(163) %0, ptr noundef nonnull align 8 dereferenceable(64) %1) local_unnamed_addr #0 align 2 {
  %3 = alloca i16, align 2
  %4 = alloca i16, align 2
  %5 = alloca i16, align 2
  %6 = alloca i16, align 2
  %7 = alloca i16, align 2
  %8 = getelementptr inbounds nuw i8, ptr %0, i64 8
  %9 = getelementptr inbounds nuw i8, ptr %0, i64 16
  %10 = load i16, ptr %9, align 8, !tbaa !6
  %11 = icmp slt i16 %10, 0
  %12 = ashr i16 %10, 5
  %13 = sext i16 %12 to i32
  %14 = getelementptr inbounds nuw i8, ptr %0, i64 20
  %15 = load i32, ptr %14, align 4
  %16 = select i1 %11, i32 %15, i32 %13
  %17 = tail call noundef nonnull align 8 dereferenceable(64) ptr @_ZN6icu_7713UnicodeString8doAppendERKS0_ii(ptr noundef nonnull align 8 dereferenceable(64) %1, ptr noundef nonnull align 8 dereferenceable(64) %8, i32 noundef 0, i32 noundef %16)
  call void @llvm.lifetime.start.p0(i64 2, ptr nonnull %7)
  store i16 58, ptr %7, align 2, !tbaa !29
  %18 = call noundef nonnull align 8 dereferenceable(64) ptr @_ZN6icu_7713UnicodeString8doAppendEPKDsii(ptr noundef nonnull align 8 dereferenceable(64) %1, ptr noundef nonnull %7, i32 noundef 0, i32 noundef 1)
  call void @llvm.lifetime.end.p0(i64 2, ptr nonnull %7)
  call void @llvm.lifetime.start.p0(i64 2, ptr nonnull %6)
  store i16 10, ptr %6, align 2, !tbaa !29
  %19 = call noundef nonnull align 8 dereferenceable(64) ptr @_ZN6icu_7713UnicodeString8doAppendEPKDsii(ptr noundef nonnull align 8 dereferenceable(64) %1, ptr noundef nonnull %6, i32 noundef 0, i32 noundef 1)
  call void @llvm.lifetime.end.p0(i64 2, ptr nonnull %6)
  %20 = getelementptr inbounds nuw i8, ptr %0, i64 80
  %21 = load i32, ptr %20, align 8, !tbaa !20
  %.not34 = icmp eq i32 %21, 0
  br i1 %.not34, label %.preheader30, label %_ZNK6icu_7710NFRuleListixEj.exit.lr.ph

_ZNK6icu_7710NFRuleListixEj.exit.lr.ph:           ; preds = %2
  %22 = getelementptr inbounds nuw i8, ptr %0, i64 72
  br label %_ZNK6icu_7710NFRuleListixEj.exit

.preheader30:                                     ; preds = %_ZNK6icu_7710NFRuleListixEj.exit, %2
  %23 = getelementptr inbounds nuw i8, ptr %0, i64 88
  %24 = getelementptr inbounds nuw i8, ptr %0, i64 152
  %25 = getelementptr inbounds nuw i8, ptr %0, i64 144
  br label %33

_ZNK6icu_7710NFRuleListixEj.exit:                 ; preds = %_ZNK6icu_7710NFRuleListixEj.exit.lr.ph, %_ZNK6icu_7710NFRuleListixEj.exit
  %indvars.iv = phi i64 [ 0, %_ZNK6icu_7710NFRuleListixEj.exit.lr.ph ], [ %indvars.iv.next, %_ZNK6icu_7710NFRuleListixEj.exit ]
  %26 = load ptr, ptr %22, align 8, !tbaa !19, !nonnull !40, !noundef !40
  %27 = getelementptr inbounds nuw ptr, ptr %26, i64 %indvars.iv
  %28 = load ptr, ptr %27, align 8, !tbaa !25
  call void @_ZNK6icu_776NFRule15_appendRuleTextERNS_13UnicodeStringE(ptr noundef nonnull align 8 dereferenceable(112) %28, ptr noundef nonnull align 8 dereferenceable(64) %1)
  call void @llvm.lifetime.start.p0(i64 2, ptr nonnull %5)
  store i16 10, ptr %5, align 2, !tbaa !29
  %29 = call noundef nonnull align 8 dereferenceable(64) ptr @_ZN6icu_7713UnicodeString8doAppendEPKDsii(ptr noundef nonnull align 8 dereferenceable(64) %1, ptr noundef nonnull %5, i32 noundef 0, i32 noundef 1)
  call void @llvm.lifetime.end.p0(i64 2, ptr nonnull %5)
  %indvars.iv.next = add nuw nsw i64 %indvars.iv, 1
  %30 = load i32, ptr %20, align 8, !tbaa !20
  %31 = zext i32 %30 to i64
  %32 = icmp samesign ult i64 %indvars.iv.next, %31
  br i1 %32, label %_ZNK6icu_7710NFRuleListixEj.exit, label %.preheader30, !llvm.loop !66

33:                                               ; preds = %.preheader30, %.loopexit
  %indvars.iv40 = phi i64 [ 0, %.preheader30 ], [ %indvars.iv.next41, %.loopexit ]
  %34 = getelementptr inbounds nuw [6 x ptr], ptr %23, i64 0, i64 %indvars.iv40
  %35 = load ptr, ptr %34, align 8, !tbaa !25
  %.not = icmp eq ptr %35, null
  br i1 %.not, label %.loopexit, label %36

36:                                               ; preds = %33
  %37 = load i64, ptr %35, align 8, !tbaa !41
  %.off = add i64 %37, 4
  %switch = icmp ult i64 %.off, 3
  br i1 %switch, label %.preheader, label %52

.preheader:                                       ; preds = %36
  %38 = load i32, ptr %24, align 8, !tbaa !20
  %.not35 = icmp eq i32 %38, 0
  br i1 %.not35, label %.loopexit, label %_ZNK6icu_7710NFRuleListixEj.exit29

_ZNK6icu_7710NFRuleListixEj.exit29:               ; preds = %.preheader, %48
  %39 = phi i32 [ %49, %48 ], [ %38, %.preheader ]
  %indvars.iv37 = phi i64 [ %indvars.iv.next38, %48 ], [ 0, %.preheader ]
  %40 = load ptr, ptr %25, align 8, !tbaa !19, !nonnull !40, !noundef !40
  %41 = getelementptr inbounds nuw ptr, ptr %40, i64 %indvars.iv37
  %42 = load ptr, ptr %41, align 8, !tbaa !25
  %43 = load i64, ptr %42, align 8, !tbaa !41
  %44 = load i64, ptr %35, align 8, !tbaa !41
  %45 = icmp eq i64 %43, %44
  br i1 %45, label %46, label %48

46:                                               ; preds = %_ZNK6icu_7710NFRuleListixEj.exit29
  call void @_ZNK6icu_776NFRule15_appendRuleTextERNS_13UnicodeStringE(ptr noundef nonnull align 8 dereferenceable(112) %42, ptr noundef nonnull align 8 dereferenceable(64) %1)
  call void @llvm.lifetime.start.p0(i64 2, ptr nonnull %4)
  store i16 10, ptr %4, align 2, !tbaa !29
  %47 = call noundef nonnull align 8 dereferenceable(64) ptr @_ZN6icu_7713UnicodeString8doAppendEPKDsii(ptr noundef nonnull align 8 dereferenceable(64) %1, ptr noundef nonnull %4, i32 noundef 0, i32 noundef 1)
  call void @llvm.lifetime.end.p0(i64 2, ptr nonnull %4)
  %.pre = load i32, ptr %24, align 8, !tbaa !20
  br label %48

48:                                               ; preds = %46, %_ZNK6icu_7710NFRuleListixEj.exit29
  %49 = phi i32 [ %.pre, %46 ], [ %39, %_ZNK6icu_7710NFRuleListixEj.exit29 ]
  %indvars.iv.next38 = add nuw nsw i64 %indvars.iv37, 1
  %50 = zext i32 %49 to i64
  %51 = icmp samesign ult i64 %indvars.iv.next38, %50
  br i1 %51, label %_ZNK6icu_7710NFRuleListixEj.exit29, label %.loopexit, !llvm.loop !67

52:                                               ; preds = %36
  call void @_ZNK6icu_776NFRule15_appendRuleTextERNS_13UnicodeStringE(ptr noundef nonnull align 8 dereferenceable(112) %35, ptr noundef nonnull align 8 dereferenceable(64) %1)
  call void @llvm.lifetime.start.p0(i64 2, ptr nonnull %3)
  store i16 10, ptr %3, align 2, !tbaa !29
  %53 = call noundef nonnull align 8 dereferenceable(64) ptr @_ZN6icu_7713UnicodeString8doAppendEPKDsii(ptr noundef nonnull align 8 dereferenceable(64) %1, ptr noundef nonnull %3, i32 noundef 0, i32 noundef 1)
  call void @llvm.lifetime.end.p0(i64 2, ptr nonnull %3)
  br label %.loopexit

.loopexit:                                        ; preds = %48, %.preheader, %52, %33
  %indvars.iv.next41 = add nuw nsw i64 %indvars.iv40, 1
  %exitcond.not = icmp eq i64 %indvars.iv.next41, 6
  br i1 %exitcond.not, label %54, label %33, !llvm.loop !68

54:                                               ; preds = %.loopexit
  ret void
}